target datalayout = "e-m:e-p270:32:32-p271:32:32-p272:64:64-i64:64-i128:128-f80:128-n8:16:32:64-S128"
target triple = "x86_64-pc-linux-gnu"

%struct.strbuf = type { i64, i64, ptr }

@.str = private unnamed_addr constant [12 x i8] c"refs/heads/\00", align 1
@.str.67 = private unnamed_addr constant [11 x i8] c"refs/tags/\00", align 1
@__const.find_remote_branch.head = private unnamed_addr constant %struct.strbuf { i64 0, i64 0, ptr @strbuf_slopbuf }, align 8

; Function Attrs: inlinehint nounwind uwtable
define internal void @strbuf_addstr(ptr noundef %0, ptr noundef %1) #4 {
  %3 = alloca ptr, align 8
  %4 = alloca ptr, align 8
  store ptr %0, ptr %3, align 8, !tbaa !86
  store ptr %1, ptr %4, align 8, !tbaa !11
  %5 = load ptr, ptr %3, align 8, !tbaa !86
  %6 = load ptr, ptr %4, align 8, !tbaa !11
  %7 = load ptr, ptr %4, align 8, !tbaa !11
  %8 = call i64 @strlen(ptr noundef %7) #15
  call void @strbuf_add(ptr noundef %5, ptr noundef %6, i64 noundef %8)
  ret void
}

; Function Attrs: nounwind uwtable
define internal ptr @find_remote_branch(ptr noundef %0, ptr noundef %1) #0 {
  %3 = alloca ptr, align 8
  %4 = alloca ptr, align 8
  %5 = alloca ptr, align 8
  %6 = alloca ptr, align 8
  %7 = alloca %struct.strbuf, align 8
  %8 = alloca i32, align 4
  store ptr %0, ptr %4, align 8, !tbaa !15
  store ptr %1, ptr %5, align 8, !tbaa !11
  call void @llvm.lifetime.start.p0(i64 8, ptr %6) #13
  call void @llvm.lifetime.start.p0(i64 24, ptr %7) #13
  call void @llvm.memcpy.p0.p0.i64(ptr align 8 %7, ptr align 8 @__const.find_remote_branch.head, i64 24, i1 false)
  call void @strbuf_addstr(ptr noundef %7, ptr noundef @.str)
  %9 = load ptr, ptr %5, align 8, !tbaa !11
  call void @strbuf_addstr(ptr noundef %7, ptr noundef %9)
  %10 = load ptr, ptr %4, align 8, !tbaa !15
  %11 = getelementptr inbounds nuw %struct.strbuf, ptr %7, i32 0, i32 2
  %12 = load ptr, ptr %11, align 8, !tbaa !49
  %13 = call ptr @find_ref_by_name(ptr noundef %10, ptr noundef %12)
  store ptr %13, ptr %6, align 8, !tbaa !15
  call void @strbuf_release(ptr noundef %7)
  %14 = load ptr, ptr %6, align 8, !tbaa !15
  %15 = icmp ne ptr %14, null
  br i1 %15, label %16, label %18

16:                                               ; preds = %2
  %17 = load ptr, ptr %6, align 8, !tbaa !15
  store ptr %17, ptr %3, align 8
  store i32 1, ptr %8, align 4
  br label %25

18:                                               ; preds = %2
  call void @strbuf_addstr(ptr noundef %7, ptr noundef @.str.67)
  %19 = load ptr, ptr %5, align 8, !tbaa !11
  call void @strbuf_addstr(ptr noundef %7, ptr noundef %19)
  %20 = load ptr, ptr %4, align 8, !tbaa !15
  %21 = getelementptr inbounds nuw %struct.strbuf, ptr %7, i32 0, i32 2
  %22 = load ptr, ptr %21, align 8, !tbaa !49
  %23 = call ptr @find_ref_by_name(ptr noundef %20, ptr noundef %22)
  store ptr %23, ptr %6, align 8, !tbaa !15
  call void @strbuf_release(ptr noundef %7)
  %24 = load ptr, ptr %6, align 8, !tbaa !15
  store ptr %24, ptr %3, align 8
  store i32 1, ptr %8, align 4
  br label %25

25:                                               ; preds = %18, %16
  call void @llvm.lifetime.end.p0(i64 24, ptr %7) #13
  call void @llvm.lifetime.end.p0(i64 8, ptr %6) #13
  %26 = load ptr, ptr %3, align 8
  ret ptr %26
}