; Function Attrs: nounwind uwtable
define internal fastcc ptr @find_remote_branch(ptr noundef %0, ptr noundef %1) unnamed_addr #0 {
  %3 = alloca %struct.strbuf, align 8
  call void @llvm.lifetime.start.p0(i64 24, ptr nonnull %3) #20
  call void @llvm.memcpy.p0.p0.i64(ptr noundef nonnull align 8 dereferenceable(24) %3, ptr noundef nonnull align 8 dereferenceable(24) @__const.git_pathdup.path, i64 24, i1 false)
  call void @strbuf_add(ptr noundef nonnull %3, ptr noundef nonnull @.str, i64 noundef 11) #20
  %4 = call i64 @strlen(ptr noundef nonnull dereferenceable(1) %1) #22
  call void @strbuf_add(ptr noundef nonnull %3, ptr noundef nonnull %1, i64 noundef %4) #20
  %5 = getelementptr inbounds nuw i8, ptr %3, i64 16
  %6 = load ptr, ptr %5, align 8, !tbaa !40
  %7 = call ptr @find_ref_by_name(ptr noundef %0, ptr noundef %6) #20
  call void @strbuf_release(ptr noundef nonnull %3) #20
  %.not = icmp eq ptr %7, null
  br i1 %.not, label %8, label %12

8:                                                ; preds = %2
  call void @strbuf_add(ptr noundef nonnull %3, ptr noundef nonnull @.str.67, i64 noundef 10) #20
  %9 = call i64 @strlen(ptr noundef nonnull dereferenceable(1) %1) #22
  call void @strbuf_add(ptr noundef nonnull %3, ptr noundef nonnull %1, i64 noundef %9) #20
  %10 = load ptr, ptr %5, align 8, !tbaa !40
  %11 = call ptr @find_ref_by_name(ptr noundef %0, ptr noundef %10) #20
  call void @strbuf_release(ptr noundef nonnull %3) #20
  br label %12

12:                                               ; preds = %2, %8
  %.0 = phi ptr [ %11, %8 ], [ %7, %2 ]
  call void @llvm.lifetime.end.p0(i64 24, ptr nonnull %3) #20
  ret ptr %.0
}